; Function Attrs: null_pointer_is_valid sspstrong uwtable
define internal fastcc noundef i32 @dissect_zbee_zcl_gp_group_list(ptr noundef %0, ptr noundef %1, i32 noundef %2, ptr noundef %3) unnamed_addr #0 {
  %5 = tail call zeroext i8 @tvb_get_uint8(ptr noundef %0, i32 noundef %2)
  %6 = zext i8 %5 to i32
  %7 = shl nuw nsw i32 %6, 2
  %8 = or disjoint i32 %7, 1
  %9 = load i32, ptr @ett_zbee_zcl_gp_group_list, align 4
  %10 = tail call ptr (ptr, ptr, i32, i32, i32, ptr, ptr, ...) @proto_tree_add_subtree_format(ptr noundef %1, ptr noundef %0, i32 noundef %2, i32 noundef %8, i32 noundef %9, ptr noundef null, ptr noundef nonnull @.str.1757, ptr noundef %3, i32 noundef %6)
  %11 = load i32, ptr @hf_zbee_gp_group_list_len, align 4
  %12 = tail call ptr @proto_tree_add_item(ptr noundef %10, i32 noundef %11, ptr noundef %0, i32 noundef %2, i32 noundef 1, i32 noundef 0)
  %13 = add i32 %2, 1
  %.not23 = icmp eq i8 %5, 0
  br i1 %.not23, label %._crit_edge, label %.lr.ph

.lr.ph:                                           ; preds = %4, %.lr.ph
  %.025 = phi i32 [ %19, %.lr.ph ], [ %13, %4 ]
  %.02224 = phi i8 [ %20, %.lr.ph ], [ %5, %4 ]
  %14 = load i32, ptr @hf_zbee_gp_group_list_group_id, align 4
  %15 = tail call ptr @proto_tree_add_item(ptr noundef %10, i32 noundef %14, ptr noundef %0, i32 noundef %.025, i32 noundef 2, i32 noundef -2147483648)
  %16 = add i32 %.025, 2
  %17 = load i32, ptr @hf_zbee_gp_group_list_alias, align 4
  %18 = tail call ptr @proto_tree_add_item(ptr noundef %10, i32 noundef %17, ptr noundef %0, i32 noundef %16, i32 noundef 2, i32 noundef -2147483648)
  %19 = add i32 %.025, 4
  %20 = add i8 %.02224, -1
  %.not = icmp eq i8 %20, 0
  br i1 %.not, label %._crit_edge, label %.lr.ph, !llvm.loop !36

._crit_edge:                                      ; preds = %.lr.ph, %4
  %.0.lcssa = phi i32 [ %13, %4 ], [ %19, %.lr.ph ]
  ret i32 %.0.lcssa
}